target datalayout = "e-m:e-p270:32:32-p271:32:32-p272:64:64-i64:64-i128:128-f80:128-n8:16:32:64-S128"
target triple = "x86_64-pc-linux-gnu"

%struct.envelope = type { i32, ptr, ptr, ptr, ptr, i64, ptr, i32, %struct.tMPI_Atomic, i32, ptr, ptr, i32, ptr, ptr, ptr, ptr }
%struct.tMPI_Atomic = type { i32, [60 x i8] }
%struct.send_envelope_list = type { ptr, %struct.tMPI_Atomic_ptr, %struct.tMPI_Atomic_ptr, ptr, ptr, i64 }
%struct.tMPI_Atomic_ptr = type { ptr, [56 x i8] }

; Function Attrs: mustprogress nounwind uwtable
define internal void @_ZL29tMPI_Send_env_list_remove_oldP8envelope(ptr noundef %0) #3 {
  %2 = alloca ptr, align 8
  store ptr %0, ptr %2, align 8, !tbaa !53
  %3 = load ptr, ptr %2, align 8, !tbaa !53
  %4 = getelementptr inbounds nuw %struct.envelope, ptr %3, i32 0, i32 11
  %5 = load ptr, ptr %4, align 8, !tbaa !14
  %6 = icmp ne ptr %5, null
  br i1 %6, label %7, label %15

7:                                                ; preds = %1
  %8 = load ptr, ptr %2, align 8, !tbaa !53
  %9 = getelementptr inbounds nuw %struct.envelope, ptr %8, i32 0, i32 10
  %10 = load ptr, ptr %9, align 8, !tbaa !32
  %11 = load ptr, ptr %2, align 8, !tbaa !53
  %12 = getelementptr inbounds nuw %struct.envelope, ptr %11, i32 0, i32 11
  %13 = load ptr, ptr %12, align 8, !tbaa !14
  %14 = getelementptr inbounds nuw %struct.envelope, ptr %13, i32 0, i32 10
  store ptr %10, ptr %14, align 8, !tbaa !32
  br label %15

15:                                               ; preds = %7, %1
  %16 = load ptr, ptr %2, align 8, !tbaa !53
  %17 = getelementptr inbounds nuw %struct.envelope, ptr %16, i32 0, i32 10
  %18 = load ptr, ptr %17, align 8, !tbaa !32
  %19 = icmp ne ptr %18, null
  br i1 %19, label %20, label %28

20:                                               ; preds = %15
  %21 = load ptr, ptr %2, align 8, !tbaa !53
  %22 = getelementptr inbounds nuw %struct.envelope, ptr %21, i32 0, i32 11
  %23 = load ptr, ptr %22, align 8, !tbaa !14
  %24 = load ptr, ptr %2, align 8, !tbaa !53
  %25 = getelementptr inbounds nuw %struct.envelope, ptr %24, i32 0, i32 10
  %26 = load ptr, ptr %25, align 8, !tbaa !32
  %27 = getelementptr inbounds nuw %struct.envelope, ptr %26, i32 0, i32 11
  store ptr %23, ptr %27, align 8, !tbaa !14
  br label %28

28:                                               ; preds = %20, %15
  %29 = load ptr, ptr %2, align 8, !tbaa !53
  %30 = getelementptr inbounds nuw %struct.envelope, ptr %29, i32 0, i32 10
  store ptr null, ptr %30, align 8, !tbaa !32
  %31 = load ptr, ptr %2, align 8, !tbaa !53
  %32 = getelementptr inbounds nuw %struct.envelope, ptr %31, i32 0, i32 11
  store ptr null, ptr %32, align 8, !tbaa !14
  ret void
}

; Function Attrs: mustprogress nounwind uwtable
define internal noundef i32 @_ZL21tMPI_Envelope_matchesPK8envelopeS1_(ptr noundef %0, ptr noundef %1) #3 {
  %3 = alloca i32, align 4
  %4 = alloca ptr, align 8
  %5 = alloca ptr, align 8
  store ptr %0, ptr %4, align 8, !tbaa !53
  store ptr %1, ptr %5, align 8, !tbaa !53
  %6 = load ptr, ptr %5, align 8, !tbaa !53
  %7 = getelementptr inbounds nuw %struct.envelope, ptr %6, i32 0, i32 0
  %8 = load i32, ptr %7, align 8, !tbaa !82
  %9 = icmp eq i32 %8, -1
  br i1 %9, label %18, label %10

10:                                               ; preds = %2
  %11 = load ptr, ptr %5, align 8, !tbaa !53
  %12 = getelementptr inbounds nuw %struct.envelope, ptr %11, i32 0, i32 0
  %13 = load i32, ptr %12, align 8, !tbaa !82
  %14 = load ptr, ptr %4, align 8, !tbaa !53
  %15 = getelementptr inbounds nuw %struct.envelope, ptr %14, i32 0, i32 0
  %16 = load i32, ptr %15, align 8, !tbaa !82
  %17 = icmp eq i32 %13, %16
  br i1 %17, label %18, label %68

18:                                               ; preds = %10, %2
  %19 = load ptr, ptr %4, align 8, !tbaa !53
  %20 = getelementptr inbounds nuw %struct.envelope, ptr %19, i32 0, i32 1
  %21 = load ptr, ptr %20, align 8, !tbaa !58
  %22 = load ptr, ptr %5, align 8, !tbaa !53
  %23 = getelementptr inbounds nuw %struct.envelope, ptr %22, i32 0, i32 1
  %24 = load ptr, ptr %23, align 8, !tbaa !58
  %25 = icmp eq ptr %21, %24
  br i1 %25, label %26, label %68

26:                                               ; preds = %18
  %27 = load ptr, ptr %5, align 8, !tbaa !53
  %28 = getelementptr inbounds nuw %struct.envelope, ptr %27, i32 0, i32 2
  %29 = load ptr, ptr %28, align 8, !tbaa !56
  %30 = icmp ne ptr %29, null
  br i1 %30, label %31, label %39

31:                                               ; preds = %26
  %32 = load ptr, ptr %5, align 8, !tbaa !53
  %33 = getelementptr inbounds nuw %struct.envelope, ptr %32, i32 0, i32 2
  %34 = load ptr, ptr %33, align 8, !tbaa !56
  %35 = load ptr, ptr %4, align 8, !tbaa !53
  %36 = getelementptr inbounds nuw %struct.envelope, ptr %35, i32 0, i32 2
  %37 = load ptr, ptr %36, align 8, !tbaa !56
  %38 = icmp eq ptr %34, %37
  br i1 %38, label %39, label %68

39:                                               ; preds = %31, %26
  %40 = load ptr, ptr %4, align 8, !tbaa !53
  %41 = getelementptr inbounds nuw %struct.envelope, ptr %40, i32 0, i32 3
  %42 = load ptr, ptr %41, align 8, !tbaa !84
  %43 = load ptr, ptr %5, align 8, !tbaa !53
  %44 = getelementptr inbounds nuw %struct.envelope, ptr %43, i32 0, i32 3
  %45 = load ptr, ptr %44, align 8, !tbaa !84
  %46 = icmp eq ptr %42, %45
  br i1 %46, label %47, label %68

47:                                               ; preds = %39
  %48 = load ptr, ptr %4, align 8, !tbaa !53
  %49 = getelementptr inbounds nuw %struct.envelope, ptr %48, i32 0, i32 6
  %50 = load ptr, ptr %49, align 8, !tbaa !90
  %51 = load ptr, ptr %5, align 8, !tbaa !53
  %52 = getelementptr inbounds nuw %struct.envelope, ptr %51, i32 0, i32 6
  %53 = load ptr, ptr %52, align 8, !tbaa !90
  %54 = icmp eq ptr %50, %53
  br i1 %54, label %55, label %68

55:                                               ; preds = %47
  %56 = load ptr, ptr %4, align 8, !tbaa !53
  %57 = getelementptr inbounds nuw %struct.envelope, ptr %56, i32 0, i32 8
  %58 = getelementptr inbounds nuw %struct.tMPI_Atomic, ptr %57, i32 0, i32 0
  %59 = load i32, ptr %58, align 4, !tbaa !92
  %60 = icmp slt i32 %59, 3
  br i1 %60, label %61, label %68

61:                                               ; preds = %55
  %62 = load ptr, ptr %5, align 8, !tbaa !53
  %63 = getelementptr inbounds nuw %struct.envelope, ptr %62, i32 0, i32 8
  %64 = getelementptr inbounds nuw %struct.tMPI_Atomic, ptr %63, i32 0, i32 0
  %65 = load i32, ptr %64, align 4, !tbaa !92
  %66 = icmp eq i32 %65, 0
  br i1 %66, label %67, label %68

67:                                               ; preds = %61
  store i32 1, ptr %3, align 4
  br label %69

68:                                               ; preds = %61, %55, %47, %39, %31, %18, %10
  store i32 0, ptr %3, align 4
  br label %69

69:                                               ; preds = %68, %67
  %70 = load i32, ptr %3, align 4
  ret i32 %70
}

; Function Attrs: mustprogress uwtable
define internal noundef ptr @_ZL29tMPI_Send_env_list_search_oldP18send_envelope_listP8envelope(ptr noundef %0, ptr noundef %1) #0 {
  %3 = alloca ptr, align 8
  %4 = alloca ptr, align 8
  %5 = alloca ptr, align 8
  %6 = alloca ptr, align 8
  %7 = alloca i32, align 4
  store ptr %0, ptr %4, align 8, !tbaa !27
  store ptr %1, ptr %5, align 8, !tbaa !53
  call void @llvm.lifetime.start.p0(i64 8, ptr %6) #7
  %8 = load ptr, ptr %4, align 8, !tbaa !27
  %9 = getelementptr inbounds nuw %struct.send_envelope_list, ptr %8, i32 0, i32 3
  %10 = load ptr, ptr %9, align 8, !tbaa !37
  %11 = getelementptr inbounds nuw %struct.envelope, ptr %10, i32 0, i32 11
  %12 = load ptr, ptr %11, align 8, !tbaa !14
  store ptr %12, ptr %6, align 8, !tbaa !53
  br label %13

13:                                               ; preds = %27, %2
  %14 = load ptr, ptr %6, align 8, !tbaa !53
  %15 = load ptr, ptr %4, align 8, !tbaa !27
  %16 = getelementptr inbounds nuw %struct.send_envelope_list, ptr %15, i32 0, i32 3
  %17 = load ptr, ptr %16, align 8, !tbaa !37
  %18 = icmp ne ptr %14, %17
  br i1 %18, label %19, label %31

19:                                               ; preds = %13
  %20 = load ptr, ptr %6, align 8, !tbaa !53
  %21 = load ptr, ptr %5, align 8, !tbaa !53
  %22 = call noundef i32 @_ZL21tMPI_Envelope_matchesPK8envelopeS1_(ptr noundef %20, ptr noundef %21)
  %23 = icmp ne i32 %22, 0
  br i1 %23, label %24, label %27

24:                                               ; preds = %19
  %25 = load ptr, ptr %6, align 8, !tbaa !53
  call void @_ZL29tMPI_Send_env_list_remove_oldP8envelope(ptr noundef %25)
  %26 = load ptr, ptr %6, align 8, !tbaa !53
  store ptr %26, ptr %3, align 8
  store i32 1, ptr %7, align 4
  br label %32

27:                                               ; preds = %19
  %28 = load ptr, ptr %6, align 8, !tbaa !53
  %29 = getelementptr inbounds nuw %struct.envelope, ptr %28, i32 0, i32 11
  %30 = load ptr, ptr %29, align 8, !tbaa !14
  store ptr %30, ptr %6, align 8, !tbaa !53
  br label %13, !llvm.loop !94

31:                                               ; preds = %13
  store ptr null, ptr %3, align 8
  store i32 1, ptr %7, align 4
  br label %32

32:                                               ; preds = %31, %24
  call void @llvm.lifetime.end.p0(i64 8, ptr %6) #7
  %33 = load ptr, ptr %3, align 8
  ret ptr %33
}