; Function Attrs: mustprogress nofree norecurse nosync nounwind memory(readwrite, inaccessiblemem: none) uwtable
define internal fastcc noundef ptr @_ZL29tMPI_Send_env_list_search_oldP18send_envelope_listP8envelope(ptr readonly %.136.val, ptr noundef nonnull readonly captures(none) %0) unnamed_addr #6 {
  %.0.in4 = getelementptr inbounds nuw i8, ptr %.136.val, i64 136
  %.05 = load ptr, ptr %.0.in4, align 8, !tbaa !10
  %.not6 = icmp eq ptr %.05, %.136.val
  br i1 %.not6, label %.loopexit, label %.lr.ph

.lr.ph:                                           ; preds = %1
  %2 = load i32, ptr %0, align 8, !tbaa !62
  %3 = icmp eq i32 %2, -1
  %4 = getelementptr inbounds nuw i8, ptr %0, i64 8
  %5 = getelementptr inbounds nuw i8, ptr %0, i64 16
  %6 = getelementptr inbounds nuw i8, ptr %0, i64 24
  %7 = getelementptr inbounds nuw i8, ptr %0, i64 48
  %8 = getelementptr inbounds nuw i8, ptr %0, i64 60
  br i1 %3, label %.lr.ph.split.us, label %.lr.ph.split

.lr.ph.split.us:                                  ; preds = %.lr.ph
  %9 = load ptr, ptr %4, align 8, !tbaa !49
  br label %10

10:                                               ; preds = %_ZL21tMPI_Envelope_matchesPK8envelopeS1_.exit.us, %.lr.ph.split.us
  %.07.us = phi ptr [ %.05, %.lr.ph.split.us ], [ %.0.us, %_ZL21tMPI_Envelope_matchesPK8envelopeS1_.exit.us ]
  %11 = getelementptr inbounds nuw i8, ptr %.07.us, i64 8
  %12 = load ptr, ptr %11, align 8, !tbaa !49
  %13 = icmp eq ptr %12, %9
  br i1 %13, label %14, label %_ZL21tMPI_Envelope_matchesPK8envelopeS1_.exit.us

14:                                               ; preds = %10
  %15 = load ptr, ptr %5, align 8, !tbaa !47
  %.not.i.us = icmp eq ptr %15, null
  br i1 %.not.i.us, label %20, label %16

16:                                               ; preds = %14
  %17 = getelementptr inbounds nuw i8, ptr %.07.us, i64 16
  %18 = load ptr, ptr %17, align 8, !tbaa !47
  %19 = icmp eq ptr %15, %18
  br i1 %19, label %20, label %_ZL21tMPI_Envelope_matchesPK8envelopeS1_.exit.us

20:                                               ; preds = %16, %14
  %21 = getelementptr inbounds nuw i8, ptr %.07.us, i64 24
  %22 = load ptr, ptr %21, align 8, !tbaa !64
  %23 = load ptr, ptr %6, align 8, !tbaa !64
  %24 = icmp eq ptr %22, %23
  br i1 %24, label %25, label %_ZL21tMPI_Envelope_matchesPK8envelopeS1_.exit.us

25:                                               ; preds = %20
  %26 = getelementptr inbounds nuw i8, ptr %.07.us, i64 48
  %27 = load ptr, ptr %26, align 8, !tbaa !71
  %28 = load ptr, ptr %7, align 8, !tbaa !71
  %29 = icmp eq ptr %27, %28
  br i1 %29, label %30, label %_ZL21tMPI_Envelope_matchesPK8envelopeS1_.exit.us

30:                                               ; preds = %25
  %31 = getelementptr inbounds nuw i8, ptr %.07.us, i64 60
  %32 = load i32, ptr %31, align 4, !tbaa !73
  %33 = icmp slt i32 %32, 3
  br i1 %33, label %34, label %_ZL21tMPI_Envelope_matchesPK8envelopeS1_.exit.us

34:                                               ; preds = %30
  %35 = load i32, ptr %8, align 4, !tbaa !73
  %36 = icmp eq i32 %35, 0
  br i1 %36, label %.split.us, label %_ZL21tMPI_Envelope_matchesPK8envelopeS1_.exit.us

_ZL21tMPI_Envelope_matchesPK8envelopeS1_.exit.us: ; preds = %34, %30, %25, %20, %16, %10
  %.0.in.us = getelementptr inbounds nuw i8, ptr %.07.us, i64 136
  %.0.us = load ptr, ptr %.0.in.us, align 8, !tbaa !10
  %.not.us = icmp eq ptr %.0.us, %.136.val
  br i1 %.not.us, label %.loopexit, label %10, !llvm.loop !82

.lr.ph.split:                                     ; preds = %.lr.ph, %_ZL21tMPI_Envelope_matchesPK8envelopeS1_.exit
  %.07 = phi ptr [ %.0, %_ZL21tMPI_Envelope_matchesPK8envelopeS1_.exit ], [ %.05, %.lr.ph ]
  %37 = load i32, ptr %.07, align 8, !tbaa !62
  %38 = icmp eq i32 %2, %37
  br i1 %38, label %39, label %_ZL21tMPI_Envelope_matchesPK8envelopeS1_.exit

39:                                               ; preds = %.lr.ph.split
  %40 = getelementptr inbounds nuw i8, ptr %.07, i64 8
  %41 = load ptr, ptr %40, align 8, !tbaa !49
  %42 = load ptr, ptr %4, align 8, !tbaa !49
  %43 = icmp eq ptr %41, %42
  br i1 %43, label %44, label %_ZL21tMPI_Envelope_matchesPK8envelopeS1_.exit

44:                                               ; preds = %39
  %45 = load ptr, ptr %5, align 8, !tbaa !47
  %.not.i = icmp eq ptr %45, null
  br i1 %.not.i, label %50, label %46

46:                                               ; preds = %44
  %47 = getelementptr inbounds nuw i8, ptr %.07, i64 16
  %48 = load ptr, ptr %47, align 8, !tbaa !47
  %49 = icmp eq ptr %45, %48
  br i1 %49, label %50, label %_ZL21tMPI_Envelope_matchesPK8envelopeS1_.exit

50:                                               ; preds = %46, %44
  %51 = getelementptr inbounds nuw i8, ptr %.07, i64 24
  %52 = load ptr, ptr %51, align 8, !tbaa !64
  %53 = load ptr, ptr %6, align 8, !tbaa !64
  %54 = icmp eq ptr %52, %53
  br i1 %54, label %55, label %_ZL21tMPI_Envelope_matchesPK8envelopeS1_.exit

55:                                               ; preds = %50
  %56 = getelementptr inbounds nuw i8, ptr %.07, i64 48
  %57 = load ptr, ptr %56, align 8, !tbaa !71
  %58 = load ptr, ptr %7, align 8, !tbaa !71
  %59 = icmp eq ptr %57, %58
  br i1 %59, label %60, label %_ZL21tMPI_Envelope_matchesPK8envelopeS1_.exit

60:                                               ; preds = %55
  %61 = getelementptr inbounds nuw i8, ptr %.07, i64 60
  %62 = load i32, ptr %61, align 4, !tbaa !73
  %63 = icmp slt i32 %62, 3
  br i1 %63, label %64, label %_ZL21tMPI_Envelope_matchesPK8envelopeS1_.exit

64:                                               ; preds = %60
  %65 = load i32, ptr %8, align 4, !tbaa !73
  %66 = icmp eq i32 %65, 0
  br i1 %66, label %.split.us, label %_ZL21tMPI_Envelope_matchesPK8envelopeS1_.exit

_ZL21tMPI_Envelope_matchesPK8envelopeS1_.exit:    ; preds = %.lr.ph.split, %39, %46, %50, %55, %60, %64
  %.0.in = getelementptr inbounds nuw i8, ptr %.07, i64 136
  %.0 = load ptr, ptr %.0.in, align 8, !tbaa !10
  %.not = icmp eq ptr %.0, %.136.val
  br i1 %.not, label %.loopexit, label %.lr.ph.split, !llvm.loop !82

.split.us:                                        ; preds = %64, %34
  %.us-phi = phi ptr [ %.07.us, %34 ], [ %.07, %64 ]
  %67 = getelementptr inbounds nuw i8, ptr %.us-phi, i64 136
  %68 = load ptr, ptr %67, align 8, !tbaa !10
  %.not.i11 = icmp eq ptr %68, null
  %.phi.trans.insert.i = getelementptr inbounds nuw i8, ptr %.us-phi, i64 128
  %.pre.i = load ptr, ptr %.phi.trans.insert.i, align 8, !tbaa !26
  br i1 %.not.i11, label %._crit_edge.i, label %69

69:                                               ; preds = %.split.us
  %70 = getelementptr inbounds nuw i8, ptr %68, i64 128
  store ptr %.pre.i, ptr %70, align 8, !tbaa !26
  br label %._crit_edge.i

._crit_edge.i:                                    ; preds = %69, %.split.us
  %.not9.i = icmp eq ptr %.pre.i, null
  br i1 %.not9.i, label %_ZL29tMPI_Send_env_list_remove_oldP8envelope.exit, label %71

71:                                               ; preds = %._crit_edge.i
  %72 = getelementptr inbounds nuw i8, ptr %.pre.i, i64 136
  store ptr %68, ptr %72, align 8, !tbaa !10
  br label %_ZL29tMPI_Send_env_list_remove_oldP8envelope.exit

_ZL29tMPI_Send_env_list_remove_oldP8envelope.exit: ; preds = %._crit_edge.i, %71
  tail call void @llvm.memset.p0.i64(ptr noundef nonnull align 8 dereferenceable(16) %.phi.trans.insert.i, i8 0, i64 16, i1 false)
  br label %.loopexit

.loopexit:                                        ; preds = %_ZL21tMPI_Envelope_matchesPK8envelopeS1_.exit, %_ZL21tMPI_Envelope_matchesPK8envelopeS1_.exit.us, %1, %_ZL29tMPI_Send_env_list_remove_oldP8envelope.exit
  %.09 = phi ptr [ %.us-phi, %_ZL29tMPI_Send_env_list_remove_oldP8envelope.exit ], [ null, %1 ], [ null, %_ZL21tMPI_Envelope_matchesPK8envelopeS1_.exit.us ], [ null, %_ZL21tMPI_Envelope_matchesPK8envelopeS1_.exit ]
  ret ptr %.09
}